; Function Attrs: nounwind sspstrong uwtable
define internal fastcc noundef ptr @rb_node_postexe_new(ptr noundef captures(none) %0, ptr noundef %1, ptr noundef nonnull readonly captures(none) %2) unnamed_addr #0 {
  %4 = getelementptr i8, ptr %0, i64 288
  %.val.i = load ptr, ptr %4, align 8, !tbaa !130
  %5 = tail call ptr @rb_ast_newnode(ptr noundef %.val.i, i32 noundef range(i32 0, 115) 100, i64 noundef range(i64 32, 129) 40, i64 noundef 8) #35
  tail call void @rb_node_init(ptr noundef %5, i32 noundef range(i32 0, 115) 100) #35
  %6 = getelementptr inbounds nuw i8, ptr %5, i64 8
  tail call void @llvm.memcpy.p0.p0.i64(ptr noundef nonnull align 8 dereferenceable(16) %6, ptr noundef nonnull readonly align 4 dereferenceable(16) %2, i64 16, i1 false), !tbaa.struct !59
  %7 = load i32, ptr %2, align 4, !tbaa !53
  %8 = sext i32 %7 to i64
  %9 = load i64, ptr %5, align 8, !tbaa !72
  %10 = and i64 %9, 32767
  %11 = shl nsw i64 %8, 15
  %12 = or disjoint i64 %10, %11
  store i64 %12, ptr %5, align 8, !tbaa !72
  %13 = getelementptr inbounds nuw i8, ptr %0, i64 296
  %14 = load i32, ptr %13, align 8, !tbaa !207
  %15 = add i32 %14, 1
  store i32 %15, ptr %13, align 8, !tbaa !207
  %16 = getelementptr inbounds nuw i8, ptr %5, i64 24
  store i32 %14, ptr %16, align 8, !tbaa !208
  %17 = getelementptr inbounds nuw i8, ptr %5, i64 32
  store ptr %1, ptr %17, align 8, !tbaa !247
  ret ptr %5
}